target datalayout = "e-m:e-p270:32:32-p271:32:32-p272:64:64-i64:64-i128:128-f80:128-n8:16:32:64-S128"
target triple = "x86_64-pc-linux-gnu"

; Function Attrs: noreturn nounwind uwtable
define void @png_chunk_error(ptr noalias noundef %0, ptr noundef %1) #0 {
  %3 = alloca ptr, align 8
  %4 = alloca ptr, align 8
  %5 = alloca [214 x i8], align 16
  store ptr %0, ptr %3, align 8, !tbaa !3
  store ptr %1, ptr %4, align 8, !tbaa !8
  call void @llvm.lifetime.start.p0(i64 214, ptr %5) #10
  %6 = load ptr, ptr %3, align 8, !tbaa !3
  %7 = icmp eq ptr %6, null
  br i1 %7, label %8, label %11

8:                                                ; preds = %2
  %9 = load ptr, ptr %3, align 8, !tbaa !3
  %10 = load ptr, ptr %4, align 8, !tbaa !8
  call void @png_error(ptr noundef %9, ptr noundef %10) #9
  unreachable

11:                                               ; preds = %2
  %12 = load ptr, ptr %3, align 8, !tbaa !3
  %13 = getelementptr inbounds [214 x i8], ptr %5, i64 0, i64 0
  %14 = load ptr, ptr %4, align 8, !tbaa !8
  call void @png_format_buffer(ptr noundef %12, ptr noundef %13, ptr noundef %14)
  %15 = load ptr, ptr %3, align 8, !tbaa !3
  %16 = getelementptr inbounds [214 x i8], ptr %5, i64 0, i64 0
  call void @png_error(ptr noundef %15, ptr noundef %16) #9
  unreachable
}