; Function Attrs: noreturn nounwind uwtable
define void @png_chunk_error(ptr noalias noundef %0, ptr noundef %1) local_unnamed_addr #0 {
  %3 = alloca [214 x i8], align 16
  call void @llvm.lifetime.start.p0(i64 214, ptr nonnull %3) #21
  %4 = icmp eq ptr %0, null
  br i1 %4, label %5, label %6

5:                                                ; preds = %2
  tail call void @png_error(ptr noundef null, ptr noundef %1) #22
  unreachable

6:                                                ; preds = %2
  %7 = getelementptr i8, ptr %0, i64 544
  %.val = load i32, ptr %7, align 8, !tbaa !38
  call fastcc void @png_format_buffer(i32 %.val, ptr noundef %3, ptr noundef %1)
  call void @png_error(ptr noundef nonnull %0, ptr noundef nonnull %3) #22
  unreachable
}